; Function Attrs: mustprogress uwtable
define dso_local void @_ZNK4absl13time_internal4cctz9time_zone6lookupERKNSt6chrono10time_pointINS3_3_V212system_clockENS3_8durationIlSt5ratioILl1ELl1EEEEEE(ptr dead_on_unwind noalias writable sret(%"struct.absl::time_internal::cctz::time_zone::absolute_lookup") align 8 %0, ptr noundef nonnull readonly align 8 captures(none) dereferenceable(8) %1, ptr noundef nonnull align 8 dereferenceable(8) %2) local_unnamed_addr #0 align 2 {
  %4 = load ptr, ptr %1, align 8, !tbaa !4
  %5 = icmp eq ptr %4, null
  br i1 %5, label %6, label %_ZNK4absl13time_internal4cctz9time_zone14effective_implEv.exit

6:                                                ; preds = %3
  %7 = tail call ptr @_ZN4absl13time_internal4cctz9time_zone4Impl3UTCEv()
  br label %_ZNK4absl13time_internal4cctz9time_zone14effective_implEv.exit

_ZNK4absl13time_internal4cctz9time_zone14effective_implEv.exit: ; preds = %3, %6
  %.0.i = phi ptr [ %7, %6 ], [ %4, %3 ]
  %8 = getelementptr inbounds nuw i8, ptr %.0.i, i64 32
  %9 = load ptr, ptr %8, align 8, !tbaa !19, !noalias !21
  %10 = load ptr, ptr %9, align 8, !tbaa !24, !noalias !21
  %11 = getelementptr inbounds nuw i8, ptr %10, i64 16
  %12 = load ptr, ptr %11, align 8, !noalias !21
  tail call void %12(ptr dead_on_unwind writable sret(%"struct.absl::time_internal::cctz::time_zone::absolute_lookup") align 8 %0, ptr noundef nonnull align 8 dereferenceable(8) %9, ptr noundef nonnull align 8 dereferenceable(8) %2)
  ret void
}